; ModuleID = '57/2457.c'
source_filename = "57/2457.c"
target datalayout = "e-m:e-p270:32:32-p271:32:32-p272:64:64-i64:64-f80:128-n8:16:32:64-S128"
target triple = "x86_64-pc-linux-gnu"

@.str = private unnamed_addr constant [3 x i8] c"%d\00", align 1
@.str.1 = private unnamed_addr constant [3 x i8] c"%s\00", align 1
@.str.2 = private unnamed_addr constant [4 x i8] c"%s\0A\00", align 1

; Function Attrs: noinline nounwind uwtable
define dso_local i32 @main() #0 {
  %1 = alloca i32, align 4
  %2 = alloca i32, align 4
  %3 = alloca i32, align 4
  %4 = alloca i32, align 4
  %5 = alloca [55 x [35 x i8]], align 16
  store i32 0, i32* %1, align 4
  %6 = call i32 (i8*, ...) @__isoc99_scanf(i8* getelementptr inbounds ([3 x i8], [3 x i8]* @.str, i64 0, i64 0), i32* %3)
  store i32 0, i32* %2, align 4
  br label %7

7:                                                ; preds = %138, %0
  %8 = load i32, i32* %2, align 4
  %9 = load i32, i32* %3, align 4
  %10 = icmp slt i32 %8, %9
  br i1 %10, label %11, label %141

11:                                               ; preds = %7
  %12 = load i32, i32* %2, align 4
  %13 = sext i32 %12 to i64
  %14 = getelementptr inbounds [55 x [35 x i8]], [55 x [35 x i8]]* %5, i64 0, i64 %13
  %15 = getelementptr inbounds [35 x i8], [35 x i8]* %14, i64 0, i64 0
  %16 = call i32 (i8*, ...) @__isoc99_scanf(i8* getelementptr inbounds ([3 x i8], [3 x i8]* @.str.1, i64 0, i64 0), i8* %15)
  %17 = load i32, i32* %2, align 4
  %18 = sext i32 %17 to i64
  %19 = getelementptr inbounds [55 x [35 x i8]], [55 x [35 x i8]]* %5, i64 0, i64 %18
  %20 = getelementptr inbounds [35 x i8], [35 x i8]* %19, i64 0, i64 0
  %21 = call i64 @strlen(i8* %20) #3
  %22 = trunc i64 %21 to i32
  store i32 %22, i32* %4, align 4
  %23 = load i32, i32* %2, align 4
  %24 = sext i32 %23 to i64
  %25 = getelementptr inbounds [55 x [35 x i8]], [55 x [35 x i8]]* %5, i64 0, i64 %24
  %26 = load i32, i32* %4, align 4
  %27 = sub nsw i32 %26, 1
  %28 = sext i32 %27 to i64
  %29 = getelementptr inbounds [35 x i8], [35 x i8]* %25, i64 0, i64 %28
  %30 = load i8, i8* %29, align 1
  %31 = sext i8 %30 to i32
  %32 = sub nsw i32 %31, 114
  %33 = icmp eq i32 %32, 0
  br i1 %33, label %34, label %54

34:                                               ; preds = %11
  %35 = load i32, i32* %2, align 4
  %36 = sext i32 %35 to i64
  %37 = getelementptr inbounds [55 x [35 x i8]], [55 x [35 x i8]]* %5, i64 0, i64 %36
  %38 = load i32, i32* %4, align 4
  %39 = sub nsw i32 %38, 2
  %40 = sext i32 %39 to i64
  %41 = getelementptr inbounds [35 x i8], [35 x i8]* %37, i64 0, i64 %40
  %42 = load i8, i8* %41, align 1
  %43 = sext i8 %42 to i32
  %44 = sub nsw i32 %43, 101
  %45 = icmp eq i32 %44, 0
  br i1 %45, label %46, label %54

46:                                               ; preds = %34
  %47 = load i32, i32* %2, align 4
  %48 = sext i32 %47 to i64
  %49 = getelementptr inbounds [55 x [35 x i8]], [55 x [35 x i8]]* %5, i64 0, i64 %48
  %50 = load i32, i32* %4, align 4
  %51 = sub nsw i32 %50, 2
  %52 = sext i32 %51 to i64
  %53 = getelementptr inbounds [35 x i8], [35 x i8]* %49, i64 0, i64 %52
  store i8 0, i8* %53, align 1
  br label %132

54:                                               ; preds = %34, %11
  %55 = load i32, i32* %2, align 4
  %56 = sext i32 %55 to i64
  %57 = getelementptr inbounds [55 x [35 x i8]], [55 x [35 x i8]]* %5, i64 0, i64 %56
  %58 = load i32, i32* %4, align 4
  %59 = sub nsw i32 %58, 1
  %60 = sext i32 %59 to i64
  %61 = getelementptr inbounds [35 x i8], [35 x i8]* %57, i64 0, i64 %60
  %62 = load i8, i8* %61, align 1
  %63 = sext i8 %62 to i32
  %64 = sub nsw i32 %63, 121
  %65 = icmp eq i32 %64, 0
  br i1 %65, label %66, label %86

66:                                               ; preds = %54
  %67 = load i32, i32* %2, align 4
  %68 = sext i32 %67 to i64
  %69 = getelementptr inbounds [55 x [35 x i8]], [55 x [35 x i8]]* %5, i64 0, i64 %68
  %70 = load i32, i32* %4, align 4
  %71 = sub nsw i32 %70, 2
  %72 = sext i32 %71 to i64
  %73 = getelementptr inbounds [35 x i8], [35 x i8]* %69, i64 0, i64 %72
  %74 = load i8, i8* %73, align 1
  %75 = sext i8 %74 to i32
  %76 = sub nsw i32 %75, 108
  %77 = icmp eq i32 %76, 0
  br i1 %77, label %78, label %86

78:                                               ; preds = %66
  %79 = load i32, i32* %2, align 4
  %80 = sext i32 %79 to i64
  %81 = getelementptr inbounds [55 x [35 x i8]], [55 x [35 x i8]]* %5, i64 0, i64 %80
  %82 = load i32, i32* %4, align 4
  %83 = sub nsw i32 %82, 2
  %84 = sext i32 %83 to i64
  %85 = getelementptr inbounds [35 x i8], [35 x i8]* %81, i64 0, i64 %84
  store i8 0, i8* %85, align 1
  br label %131

86:                                               ; preds = %66, %54
  %87 = load i32, i32* %2, align 4
  %88 = sext i32 %87 to i64
  %89 = getelementptr inbounds [55 x [35 x i8]], [55 x [35 x i8]]* %5, i64 0, i64 %88
  %90 = load i32, i32* %4, align 4
  %91 = sub nsw i32 %90, 1
  %92 = sext i32 %91 to i64
  %93 = getelementptr inbounds [35 x i8], [35 x i8]* %89, i64 0, i64 %92
  %94 = load i8, i8* %93, align 1
  %95 = sext i8 %94 to i32
  %96 = sub nsw i32 %95, 103
  %97 = icmp eq i32 %96, 0
  br i1 %97, label %98, label %130

98:                                               ; preds = %86
  %99 = load i32, i32* %2, align 4
  %100 = sext i32 %99 to i64
  %101 = getelementptr inbounds [55 x [35 x i8]], [55 x [35 x i8]]* %5, i64 0, i64 %100
  %102 = load i32, i32* %4, align 4
  %103 = sub nsw i32 %102, 2
  %104 = sext i32 %103 to i64
  %105 = getelementptr inbounds [35 x i8], [35 x i8]* %101, i64 0, i64 %104
  %106 = load i8, i8* %105, align 1
  %107 = sext i8 %106 to i32
  %108 = sub nsw i32 %107, 110
  %109 = icmp eq i32 %108, 0
  br i1 %109, label %110, label %130

110:                                              ; preds = %98
  %111 = load i32, i32* %2, align 4
  %112 = sext i32 %111 to i64
  %113 = getelementptr inbounds [55 x [35 x i8]], [55 x [35 x i8]]* %5, i64 0, i64 %112
  %114 = load i32, i32* %4, align 4
  %115 = sub nsw i32 %114, 3
  %116 = sext i32 %115 to i64
  %117 = getelementptr inbounds [35 x i8], [35 x i8]* %113, i64 0, i64 %116
  %118 = load i8, i8* %117, align 1
  %119 = sext i8 %118 to i32
  %120 = sub nsw i32 %119, 105
  %121 = icmp eq i32 %120, 0
  br i1 %121, label %122, label %130

122:                                              ; preds = %110
  %123 = load i32, i32* %2, align 4
  %124 = sext i32 %123 to i64
  %125 = getelementptr inbounds [55 x [35 x i8]], [55 x [35 x i8]]* %5, i64 0, i64 %124
  %126 = load i32, i32* %4, align 4
  %127 = sub nsw i32 %126, 3
  %128 = sext i32 %127 to i64
  %129 = getelementptr inbounds [35 x i8], [35 x i8]* %125, i64 0, i64 %128
  store i8 0, i8* %129, align 1
  br label %130

130:                                              ; preds = %122, %110, %98, %86
  br label %131

131:                                              ; preds = %130, %78
  br label %132

132:                                              ; preds = %131, %46
  %133 = load i32, i32* %2, align 4
  %134 = sext i32 %133 to i64
  %135 = getelementptr inbounds [55 x [35 x i8]], [55 x [35 x i8]]* %5, i64 0, i64 %134
  %136 = getelementptr inbounds [35 x i8], [35 x i8]* %135, i64 0, i64 0
  %137 = call i32 (i8*, ...) @printf(i8* getelementptr inbounds ([4 x i8], [4 x i8]* @.str.2, i64 0, i64 0), i8* %136)
  br label %138

138:                                              ; preds = %132
  %139 = load i32, i32* %2, align 4
  %140 = add nsw i32 %139, 1
  store i32 %140, i32* %2, align 4
  br label %7

141:                                              ; preds = %7
  ret i32 0
}

declare dso_local i32 @__isoc99_scanf(i8*, ...) #1

; Function Attrs: nounwind readonly
declare dso_local i64 @strlen(i8*) #2

declare dso_local i32 @printf(i8*, ...) #1


!llvm.module.flags = !{!0}
!llvm.ident = !{!1}

!0 = !{i32 1, !"wchar_size", i32 4}
!1 = !{!"clang version 10.0.0-4ubuntu1 "}
