; ModuleID = 'source-C-CXX/56/2457.c'
source_filename = "source-C-CXX/56/2457.c"
target datalayout = "e-m:e-p270:32:32-p271:32:32-p272:64:64-i64:64-f80:128-n8:16:32:64-S128"
target triple = "x86_64-pc-linux-gnu"

@.str = private unnamed_addr constant [3 x i8] c"%d\00", align 1
@.str.1 = private unnamed_addr constant [3 x i8] c"%s\00", align 1

; Function Attrs: nofree nounwind sspstrong uwtable
define dso_local i32 @main() local_unnamed_addr #0 {
  %1 = alloca i32, align 4
  %2 = alloca [55 x [35 x i8]], align 16
  %3 = bitcast i32* %1 to i8*
  call void @llvm.lifetime.start.p0i8(i64 4, i8* nonnull %3) #5
  %4 = getelementptr inbounds [55 x [35 x i8]], [55 x [35 x i8]]* %2, i64 0, i64 0, i64 0
  call void @llvm.lifetime.start.p0i8(i64 1925, i8* nonnull %4) #5
  %5 = call i32 (i8*, ...) @__isoc99_scanf(i8* getelementptr inbounds ([3 x i8], [3 x i8]* @.str, i64 0, i64 0), i32* nonnull %1)
  %6 = load i32, i32* %1, align 4, !tbaa !5
  %7 = icmp sgt i32 %6, 0
  br i1 %7, label %8, label %50

8:                                                ; preds = %0, %44
  %9 = phi i64 [ %46, %44 ], [ 0, %0 ]
  %10 = getelementptr inbounds [55 x [35 x i8]], [55 x [35 x i8]]* %2, i64 0, i64 %9, i64 0
  %11 = call i32 (i8*, ...) @__isoc99_scanf(i8* getelementptr inbounds ([3 x i8], [3 x i8]* @.str.1, i64 0, i64 0), i8* nonnull %10)
  %12 = call i64 @strlen(i8* noundef nonnull %10) #6
  %13 = shl i64 %12, 32
  %14 = add i64 %13, -4294967296
  %15 = ashr exact i64 %14, 32
  %16 = getelementptr inbounds [55 x [35 x i8]], [55 x [35 x i8]]* %2, i64 0, i64 %9, i64 %15
  %17 = load i8, i8* %16, align 1, !tbaa !9
  switch i8 %17, label %44 [
    i8 114, label %18
    i8 121, label %24
    i8 103, label %30
  ]

18:                                               ; preds = %8
  %19 = add i64 %13, -8589934592
  %20 = ashr exact i64 %19, 32
  %21 = getelementptr inbounds [55 x [35 x i8]], [55 x [35 x i8]]* %2, i64 0, i64 %9, i64 %20
  %22 = load i8, i8* %21, align 1, !tbaa !9
  %23 = icmp eq i8 %22, 101
  br i1 %23, label %42, label %44

24:                                               ; preds = %8
  %25 = add i64 %13, -8589934592
  %26 = ashr exact i64 %25, 32
  %27 = getelementptr inbounds [55 x [35 x i8]], [55 x [35 x i8]]* %2, i64 0, i64 %9, i64 %26
  %28 = load i8, i8* %27, align 1, !tbaa !9
  %29 = icmp eq i8 %28, 108
  br i1 %29, label %42, label %44

30:                                               ; preds = %8
  %31 = add i64 %13, -8589934592
  %32 = ashr exact i64 %31, 32
  %33 = getelementptr inbounds [55 x [35 x i8]], [55 x [35 x i8]]* %2, i64 0, i64 %9, i64 %32
  %34 = load i8, i8* %33, align 1, !tbaa !9
  %35 = icmp eq i8 %34, 110
  br i1 %35, label %36, label %44

36:                                               ; preds = %30
  %37 = add i64 %13, -12884901888
  %38 = ashr exact i64 %37, 32
  %39 = getelementptr inbounds [55 x [35 x i8]], [55 x [35 x i8]]* %2, i64 0, i64 %9, i64 %38
  %40 = load i8, i8* %39, align 1, !tbaa !9
  %41 = icmp eq i8 %40, 105
  br i1 %41, label %42, label %44

42:                                               ; preds = %36, %24, %18
  %43 = phi i8* [ %21, %18 ], [ %27, %24 ], [ %39, %36 ]
  store i8 0, i8* %43, align 1, !tbaa !9
  br label %44

44:                                               ; preds = %42, %8, %18, %24, %36, %30
  %45 = call i32 @puts(i8* nonnull %10)
  %46 = add nuw nsw i64 %9, 1
  %47 = load i32, i32* %1, align 4, !tbaa !5
  %48 = sext i32 %47 to i64
  %49 = icmp slt i64 %46, %48
  br i1 %49, label %8, label %50, !llvm.loop !10

50:                                               ; preds = %44, %0
  call void @llvm.lifetime.end.p0i8(i64 1925, i8* nonnull %4) #5
  call void @llvm.lifetime.end.p0i8(i64 4, i8* nonnull %3) #5
  ret i32 0
}

; Function Attrs: argmemonly mustprogress nofree nosync nounwind willreturn
declare void @llvm.lifetime.start.p0i8(i64 immarg, i8* nocapture) #1

; Function Attrs: nofree nounwind
declare noundef i32 @__isoc99_scanf(i8* nocapture noundef readonly, ...) local_unnamed_addr #2

; Function Attrs: argmemonly mustprogress nofree nounwind readonly willreturn
declare i64 @strlen(i8* nocapture) local_unnamed_addr #3

; Function Attrs: argmemonly mustprogress nofree nosync nounwind willreturn
declare void @llvm.lifetime.end.p0i8(i64 immarg, i8* nocapture) #1

; Function Attrs: nofree nounwind
declare noundef i32 @puts(i8* nocapture noundef readonly) local_unnamed_addr #4


!llvm.module.flags = !{!0, !1, !2, !3}
!llvm.ident = !{!4}

!0 = !{i32 1, !"wchar_size", i32 4}
!1 = !{i32 7, !"PIC Level", i32 2}
!2 = !{i32 7, !"PIE Level", i32 2}
!3 = !{i32 7, !"uwtable", i32 1}
!4 = !{!"clang version 13.0.0"}
!5 = !{!6, !6, i64 0}
!6 = !{!"int", !7, i64 0}
!7 = !{!"omnipotent char", !8, i64 0}
!8 = !{!"Simple C/C++ TBAA"}
!9 = !{!7, !7, i64 0}
!10 = distinct !{!10, !11}
!11 = !{!"llvm.loop.mustprogress"}
